(dp1
S'http://yelp.com/'
p2
(lp3
S'2008-08-15 00:42:09'
p4
aNasS'http://newsweek.com/'
p5
(lp6
S'2008-08-22 03:36:42'
p7
aNasS'http://drudge.com/'
p8
(lp9
S'2008-08-09 13:53:43'
p10
aNasS'http://tinkertytonk.blogspot.com/'
p11
(lp12
S'2008-08-06 00:06:25'
p13
aNasS'http://rbruer.typepad.com/'
p14
(lp15
S'2008-08-26 12:13:43'
p16
aNasS'http://philly.com/'
p17
(lp18
S'2008-08-10 07:15:54'
p19
aNasS'http://brothermartin.wordpress.com/'
p20
(lp21
S'2008-08-05 22:17:51'
p22
aNasS'http://innovationsinnewspapers.com/'
p23
(lp24
S'2008-08-28 14:39:44'
p25
aNasS'http://dailybreeze.com/'
p26
(lp27
S'2008-08-09 06:59:26'
p28
aNasS'http://illegal-immigration.typepad.com/'
p29
(lp30
S'2008-08-26 17:58:55'
p31
aNasS'http://care2.com/'
p32
(lp33
S'2008-08-18 01:49:56'
p34
aNasS'http://abc4.com/'
p35
(lp36
S'2008-08-21 00:24:44'
p37
aNasS'http://wingsforwheels.net/'
p38
(lp39
S'2008-08-06 04:32:06'
p40
aNasS'http://blog.adaniels.nl/'
p41
(lp42
S'2008-08-13 10:11:47'
p43
aNasS'http://offtopicz.com/'
p44
(lp45
S'2008-08-02 15:17:54'
p46
aNasS'http://libertysapothecary.com/'
p47
(lp48
S'2008-08-23 05:31:58'
p49
aNasS'http://crooksandliars.com/'
p50
(lp51
S'2008-08-31 23:52:12'
p52
aNasS'http://westandclear.com/'
p53
(lp54
S'2008-08-06 22:03:02'
p55
aNasS'http://blogsforvictory.com/'
p56
(lp57
S'2008-08-31 23:52:47'
p58
aNasS'http://seventhgeneration.com/'
p59
(lp60
S'2008-08-18 19:42:51'
p61
aNasS'http://dinmerican.wordpress.com/'
p62
(lp63
S'2008-08-08 04:50:20'
p64
aNasS'http://blog.myspace.com/'
p65
(lp66
S'2008-08-08 16:19:21'
p67
aNasS'http://thedistrictweekly.com/'
p68
(lp69
S'2008-08-05 19:19:08'
p70
aNas.